target datalayout = "e-m:e-p270:32:32-p271:32:32-p272:64:64-i64:64-i128:128-f80:128-n8:16:32:64-S128"
target triple = "x86_64-pc-linux-gnu"

%"struct.(anonymous namespace)::local_tsi_handshaker_result" = type { %struct.tsi_handshaker_result, ptr, i64 }
%struct.tsi_handshaker_result = type { ptr }

; Function Attrs: mustprogress uwtable
define internal void @_ZN12_GLOBAL__N_125handshaker_result_destroyEP21tsi_handshaker_result(ptr noundef %0) #4 {
  %2 = alloca ptr, align 8
  %3 = alloca ptr, align 8
  store ptr %0, ptr %2, align 8, !tbaa !43
  %4 = load ptr, ptr %2, align 8, !tbaa !43
  %5 = icmp eq ptr %4, null
  br i1 %5, label %6, label %7

6:                                                ; preds = %1
  br label %13

7:                                                ; preds = %1
  call void @llvm.lifetime.start.p0(i64 8, ptr %3) #3
  %8 = load ptr, ptr %2, align 8, !tbaa !43
  store ptr %8, ptr %3, align 8, !tbaa !35
  %9 = load ptr, ptr %3, align 8, !tbaa !35
  %10 = getelementptr inbounds nuw %"struct.(anonymous namespace)::local_tsi_handshaker_result", ptr %9, i32 0, i32 1
  %11 = load ptr, ptr %10, align 8, !tbaa !37
  call void @gpr_free(ptr noundef %11)
  %12 = load ptr, ptr %3, align 8, !tbaa !35
  call void @gpr_free(ptr noundef %12)
  call void @llvm.lifetime.end.p0(i64 8, ptr %3) #3
  br label %13

13:                                               ; preds = %7, %6
  ret void
}