; Function Attrs: mustprogress uwtable
define internal void @_ZN12_GLOBAL__N_125handshaker_result_destroyEP21tsi_handshaker_result(ptr noundef %0) #3 {
  %2 = icmp eq ptr %0, null
  br i1 %2, label %6, label %3

3:                                                ; preds = %1
  %4 = getelementptr inbounds nuw i8, ptr %0, i64 8
  %5 = load ptr, ptr %4, align 8, !tbaa !19
  tail call void @gpr_free(ptr noundef %5)
  tail call void @gpr_free(ptr noundef nonnull %0)
  br label %6

6:                                                ; preds = %1, %3
  ret void
}